target datalayout = "e-m:e-p270:32:32-p271:32:32-p272:64:64-i64:64-i128:128-f80:128-n8:16:32:64-S128"
target triple = "x86_64-pc-linux-gnu"

%"class.cmUVJobServerClient::Impl" = type { ptr, ptr, %"struct.cm::uv_idle_ptr", %"class.std::function", %"class.std::function.0", i32, i32 }
%"struct.cm::uv_idle_ptr" = type { %"class.cm::uv_handle_ptr_" }
%"class.cm::uv_handle_ptr_" = type { %"class.cm::uv_handle_ptr_base_" }
%"class.cm::uv_handle_ptr_base_" = type { %"class.std::shared_ptr" }
%"class.std::shared_ptr" = type { %"class.std::__shared_ptr" }
%"class.std::__shared_ptr" = type { ptr, %"class.std::__shared_count" }
%"class.std::__shared_count" = type { ptr }
%"class.std::function" = type { %"class.std::_Function_base", ptr }
%"class.std::_Function_base" = type { %"union.std::_Any_data", ptr }
%"union.std::_Any_data" = type { %"union.std::_Nocopy_types" }
%"union.std::_Nocopy_types" = type { { i64, i64 } }
%"class.std::function.0" = type { %"class.std::_Function_base", ptr }
%"class.(anonymous namespace)::ImplPosix" = type <{ %"class.cmUVJobServerClient::Impl", i32, [4 x i8], %"struct.cm::uv_pipe_ptr", %"struct.cm::uv_pipe_ptr", %"struct.cm::uv_pipe_ptr", %"class.std::shared_ptr.22", i8, i8, [6 x i8] }>
%"struct.cm::uv_pipe_ptr" = type { %"class.cm::uv_handle_ptr_.17" }
%"class.cm::uv_handle_ptr_.17" = type { %"class.cm::uv_handle_ptr_base_.18" }
%"class.cm::uv_handle_ptr_base_.18" = type { %"class.std::shared_ptr.19" }
%"class.std::shared_ptr.19" = type { %"class.std::__shared_ptr.20" }
%"class.std::__shared_ptr.20" = type { ptr, %"class.std::__shared_count" }
%"class.std::shared_ptr.22" = type { %"class.std::__shared_ptr.23" }
%"class.std::__shared_ptr.23" = type { ptr, %"class.std::__shared_count" }

; Function Attrs: mustprogress uwtable
define internal noundef ptr @_ZNK12_GLOBAL__N_19ImplPosix9GetReaderEv(ptr noundef nonnull align 8 dereferenceable(178) %0) #4 align 2 {
  %2 = alloca ptr, align 8
  %3 = alloca ptr, align 8
  store ptr %0, ptr %3, align 8
  %4 = load ptr, ptr %3, align 8
  %5 = getelementptr inbounds %"class.(anonymous namespace)::ImplPosix", ptr %4, i32 0, i32 1
  %6 = load i32, ptr %5, align 8
  switch i32 %6, label %13 [
    i32 1, label %7
    i32 2, label %10
  ]

7:                                                ; preds = %1
  %8 = getelementptr inbounds %"class.(anonymous namespace)::ImplPosix", ptr %4, i32 0, i32 3
  %9 = call noundef ptr @_ZNK2cm11uv_pipe_ptrcvP11uv_stream_sEv(ptr noundef nonnull align 8 dereferenceable(16) %8)
  store ptr %9, ptr %2, align 8
  br label %14

10:                                               ; preds = %1
  %11 = getelementptr inbounds %"class.(anonymous namespace)::ImplPosix", ptr %4, i32 0, i32 5
  %12 = call noundef ptr @_ZNK2cm11uv_pipe_ptrcvP11uv_stream_sEv(ptr noundef nonnull align 8 dereferenceable(16) %11)
  store ptr %12, ptr %2, align 8
  br label %14

13:                                               ; preds = %1
  store ptr null, ptr %2, align 8
  br label %14

14:                                               ; preds = %13, %10, %7
  %15 = load ptr, ptr %2, align 8
  ret ptr %15
}

; Function Attrs: mustprogress uwtable
define internal void @_ZN12_GLOBAL__N_19ImplPosix19StopReceivingTokensEv(ptr noundef nonnull align 8 dereferenceable(178) %0) unnamed_addr #4 align 2 {
  %2 = alloca ptr, align 8
  store ptr %0, ptr %2, align 8
  %3 = load ptr, ptr %2, align 8
  %4 = getelementptr inbounds %"class.(anonymous namespace)::ImplPosix", ptr %3, i32 0, i32 1
  %5 = load i32, ptr %4, align 8
  %6 = icmp eq i32 %5, 0
  br i1 %6, label %7, label %8

7:                                                ; preds = %1
  br label %17

8:                                                ; preds = %1
  %9 = getelementptr inbounds %"class.(anonymous namespace)::ImplPosix", ptr %3, i32 0, i32 8
  %10 = load i8, ptr %9, align 1
  %11 = trunc i8 %10 to i1
  br i1 %11, label %13, label %12

12:                                               ; preds = %8
  br label %17

13:                                               ; preds = %8
  %14 = getelementptr inbounds %"class.(anonymous namespace)::ImplPosix", ptr %3, i32 0, i32 8
  store i8 0, ptr %14, align 1
  %15 = call noundef ptr @_ZNK12_GLOBAL__N_19ImplPosix9GetReaderEv(ptr noundef nonnull align 8 dereferenceable(178) %3)
  %16 = call i32 @uv_read_stop(ptr noundef %15)
  br label %17

17:                                               ; preds = %13, %12, %7
  ret void
}