; Function Attrs: mustprogress uwtable
define internal void @_ZN12_GLOBAL__N_19ImplPosix19StopReceivingTokensEv(ptr noundef nonnull align 8 dereferenceable(178) %0) unnamed_addr #3 align 2 {
  %2 = getelementptr inbounds i8, ptr %0, i64 104
  %3 = load i32, ptr %2, align 8
  %4 = icmp eq i32 %3, 0
  br i1 %4, label %14, label %5

5:                                                ; preds = %1
  %6 = getelementptr inbounds i8, ptr %0, i64 177
  %7 = load i8, ptr %6, align 1
  %8 = and i8 %7, 1
  %.not = icmp eq i8 %8, 0
  br i1 %.not, label %14, label %9

9:                                                ; preds = %5
  store i8 0, ptr %6, align 1
  switch i32 %3, label %_ZNK12_GLOBAL__N_19ImplPosix9GetReaderEv.exit [
    i32 1, label %.sink.split.i
    i32 2, label %10
  ]

10:                                               ; preds = %9
  br label %.sink.split.i

.sink.split.i:                                    ; preds = %10, %9
  %.sink2.i = phi i64 [ 144, %10 ], [ 112, %9 ]
  %11 = getelementptr inbounds i8, ptr %0, i64 %.sink2.i
  %12 = tail call noundef ptr @_ZNK2cm11uv_pipe_ptrcvP11uv_stream_sEv(ptr noundef nonnull align 8 dereferenceable(16) %11)
  br label %_ZNK12_GLOBAL__N_19ImplPosix9GetReaderEv.exit

_ZNK12_GLOBAL__N_19ImplPosix9GetReaderEv.exit:    ; preds = %9, %.sink.split.i
  %.0.i = phi ptr [ null, %9 ], [ %12, %.sink.split.i ]
  %13 = tail call i32 @uv_read_stop(ptr noundef %.0.i)
  br label %14

14:                                               ; preds = %5, %1, %_ZNK12_GLOBAL__N_19ImplPosix9GetReaderEv.exit
  ret void
}